target datalayout = "e-m:e-p270:32:32-p271:32:32-p272:64:64-i64:64-i128:128-f80:128-n8:16:32:64-S128"
target triple = "x86_64-pc-linux-gnu"

%struct.jpeg_decompress_struct = type { ptr, ptr, ptr, ptr, i32, i32, ptr, i32, i32, i32, i32, i32, i32, i32, double, i32, i32, i32, i32, i32, i32, i32, i32, i32, i32, i32, i32, i32, i32, i32, i32, i32, i32, ptr, i32, i32, i32, i32, i32, ptr, [4 x ptr], [4 x ptr], [4 x ptr], i32, ptr, i32, i32, [16 x i8], [16 x i8], [16 x i8], i32, i32, i8, i8, i8, i16, i16, i32, i8, i32, ptr, i32, i32, i32, i32, ptr, i32, [4 x ptr], i32, i32, i32, [10 x i32], i32, i32, i32, i32, i32, ptr, ptr, ptr, ptr, ptr, ptr, ptr, ptr, ptr, ptr, ptr }
%struct.phuff_entropy_decoder = type { %struct.jpeg_entropy_decoder, %struct.bitread_perm_state, %struct.savable_state, i32, [4 x ptr], ptr }
%struct.jpeg_entropy_decoder = type { ptr, ptr, ptr, ptr, i32 }
%struct.bitread_perm_state = type { i64, i32 }
%struct.savable_state = type { i32, [4 x i32] }
%struct.bitread_working_state = type { ptr, i64, i64, i32, ptr }
%struct.jpeg_source_mgr = type { ptr, i64, ptr, ptr, ptr, ptr, ptr }
%struct.jpeg_marker_reader = type { ptr, ptr, ptr, i32, i32, i32, i32 }

; Function Attrs: nounwind uwtable
define internal i32 @process_restart(ptr noundef %0) #0 {
  %2 = alloca i32, align 4
  %3 = alloca ptr, align 8
  %4 = alloca ptr, align 8
  %5 = alloca i32, align 4
  %6 = alloca i32, align 4
  store ptr %0, ptr %3, align 8, !tbaa !3
  call void @llvm.lifetime.start.p0(i64 8, ptr %4) #4
  %7 = load ptr, ptr %3, align 8, !tbaa !3
  %8 = getelementptr inbounds nuw %struct.jpeg_decompress_struct, ptr %7, i32 0, i32 83
  %9 = load ptr, ptr %8, align 8, !tbaa !36
  store ptr %9, ptr %4, align 8, !tbaa !35
  call void @llvm.lifetime.start.p0(i64 4, ptr %5) #4
  %10 = load ptr, ptr %4, align 8, !tbaa !35
  %11 = getelementptr inbounds nuw %struct.phuff_entropy_decoder, ptr %10, i32 0, i32 1
  %12 = getelementptr inbounds nuw %struct.bitread_perm_state, ptr %11, i32 0, i32 1
  %13 = load i32, ptr %12, align 8, !tbaa !72
  %14 = sdiv i32 %13, 8
  %15 = load ptr, ptr %3, align 8, !tbaa !3
  %16 = getelementptr inbounds nuw %struct.jpeg_decompress_struct, ptr %15, i32 0, i32 82
  %17 = load ptr, ptr %16, align 8, !tbaa !103
  %18 = getelementptr inbounds nuw %struct.jpeg_marker_reader, ptr %17, i32 0, i32 6
  %19 = load i32, ptr %18, align 4, !tbaa !104
  %20 = add i32 %19, %14
  store i32 %20, ptr %18, align 4, !tbaa !104
  %21 = load ptr, ptr %4, align 8, !tbaa !35
  %22 = getelementptr inbounds nuw %struct.phuff_entropy_decoder, ptr %21, i32 0, i32 1
  %23 = getelementptr inbounds nuw %struct.bitread_perm_state, ptr %22, i32 0, i32 1
  store i32 0, ptr %23, align 8, !tbaa !72
  %24 = load ptr, ptr %3, align 8, !tbaa !3
  %25 = getelementptr inbounds nuw %struct.jpeg_decompress_struct, ptr %24, i32 0, i32 82
  %26 = load ptr, ptr %25, align 8, !tbaa !103
  %27 = getelementptr inbounds nuw %struct.jpeg_marker_reader, ptr %26, i32 0, i32 2
  %28 = load ptr, ptr %27, align 8, !tbaa !106
  %29 = load ptr, ptr %3, align 8, !tbaa !3
  %30 = call i32 %28(ptr noundef %29)
  %31 = icmp ne i32 %30, 0
  br i1 %31, label %33, label %32

32:                                               ; preds = %1
  store i32 0, ptr %2, align 4
  store i32 1, ptr %6, align 4
  br label %68

33:                                               ; preds = %1
  store i32 0, ptr %5, align 4, !tbaa !42
  br label %34

34:                                               ; preds = %47, %33
  %35 = load i32, ptr %5, align 4, !tbaa !42
  %36 = load ptr, ptr %3, align 8, !tbaa !3
  %37 = getelementptr inbounds nuw %struct.jpeg_decompress_struct, ptr %36, i32 0, i32 66
  %38 = load i32, ptr %37, align 8, !tbaa !52
  %39 = icmp slt i32 %35, %38
  br i1 %39, label %40, label %50

40:                                               ; preds = %34
  %41 = load ptr, ptr %4, align 8, !tbaa !35
  %42 = getelementptr inbounds nuw %struct.phuff_entropy_decoder, ptr %41, i32 0, i32 2
  %43 = getelementptr inbounds nuw %struct.savable_state, ptr %42, i32 0, i32 1
  %44 = load i32, ptr %5, align 4, !tbaa !42
  %45 = sext i32 %44 to i64
  %46 = getelementptr inbounds [4 x i32], ptr %43, i64 0, i64 %45
  store i32 0, ptr %46, align 4, !tbaa !42
  br label %47

47:                                               ; preds = %40
  %48 = load i32, ptr %5, align 4, !tbaa !42
  %49 = add nsw i32 %48, 1
  store i32 %49, ptr %5, align 4, !tbaa !42
  br label %34, !llvm.loop !107

50:                                               ; preds = %34
  %51 = load ptr, ptr %4, align 8, !tbaa !35
  %52 = getelementptr inbounds nuw %struct.phuff_entropy_decoder, ptr %51, i32 0, i32 2
  %53 = getelementptr inbounds nuw %struct.savable_state, ptr %52, i32 0, i32 0
  store i32 0, ptr %53, align 8, !tbaa !75
  %54 = load ptr, ptr %3, align 8, !tbaa !3
  %55 = getelementptr inbounds nuw %struct.jpeg_decompress_struct, ptr %54, i32 0, i32 50
  %56 = load i32, ptr %55, align 8, !tbaa !76
  %57 = load ptr, ptr %4, align 8, !tbaa !35
  %58 = getelementptr inbounds nuw %struct.phuff_entropy_decoder, ptr %57, i32 0, i32 3
  store i32 %56, ptr %58, align 4, !tbaa !77
  %59 = load ptr, ptr %3, align 8, !tbaa !3
  %60 = getelementptr inbounds nuw %struct.jpeg_decompress_struct, ptr %59, i32 0, i32 76
  %61 = load i32, ptr %60, align 4, !tbaa !108
  %62 = icmp eq i32 %61, 0
  br i1 %62, label %63, label %67

63:                                               ; preds = %50
  %64 = load ptr, ptr %4, align 8, !tbaa !35
  %65 = getelementptr inbounds nuw %struct.phuff_entropy_decoder, ptr %64, i32 0, i32 0
  %66 = getelementptr inbounds nuw %struct.jpeg_entropy_decoder, ptr %65, i32 0, i32 4
  store i32 0, ptr %66, align 8, !tbaa !74
  br label %67

67:                                               ; preds = %63, %50
  store i32 1, ptr %2, align 4
  store i32 1, ptr %6, align 4
  br label %68

68:                                               ; preds = %67, %32
  call void @llvm.lifetime.end.p0(i64 4, ptr %5) #4
  call void @llvm.lifetime.end.p0(i64 8, ptr %4) #4
  %69 = load i32, ptr %2, align 4
  ret i32 %69
}

; Function Attrs: nounwind uwtable
define internal i32 @decode_mcu_DC_refine(ptr noundef %0, ptr noundef %1) #0 {
  %3 = alloca i32, align 4
  %4 = alloca ptr, align 8
  %5 = alloca ptr, align 8
  %6 = alloca ptr, align 8
  %7 = alloca i32, align 4
  %8 = alloca i32, align 4
  %9 = alloca ptr, align 8
  %10 = alloca i64, align 8
  %11 = alloca i32, align 4
  %12 = alloca %struct.bitread_working_state, align 8
  %13 = alloca i32, align 4
  store ptr %0, ptr %4, align 8, !tbaa !3
  store ptr %1, ptr %5, align 8, !tbaa !78
  call void @llvm.lifetime.start.p0(i64 8, ptr %6) #4
  %14 = load ptr, ptr %4, align 8, !tbaa !3
  %15 = getelementptr inbounds nuw %struct.jpeg_decompress_struct, ptr %14, i32 0, i32 83
  %16 = load ptr, ptr %15, align 8, !tbaa !36
  store ptr %16, ptr %6, align 8, !tbaa !35
  call void @llvm.lifetime.start.p0(i64 4, ptr %7) #4
  %17 = load ptr, ptr %4, align 8, !tbaa !3
  %18 = getelementptr inbounds nuw %struct.jpeg_decompress_struct, ptr %17, i32 0, i32 75
  %19 = load i32, ptr %18, align 8, !tbaa !54
  %20 = shl i32 1, %19
  store i32 %20, ptr %7, align 4, !tbaa !42
  call void @llvm.lifetime.start.p0(i64 4, ptr %8) #4
  call void @llvm.lifetime.start.p0(i64 8, ptr %9) #4
  call void @llvm.lifetime.start.p0(i64 8, ptr %10) #4
  call void @llvm.lifetime.start.p0(i64 4, ptr %11) #4
  call void @llvm.lifetime.start.p0(i64 40, ptr %12) #4
  %21 = load ptr, ptr %4, align 8, !tbaa !3
  %22 = getelementptr inbounds nuw %struct.jpeg_decompress_struct, ptr %21, i32 0, i32 50
  %23 = load i32, ptr %22, align 8, !tbaa !76
  %24 = icmp ne i32 %23, 0
  br i1 %24, label %25, label %37

25:                                               ; preds = %2
  %26 = load ptr, ptr %6, align 8, !tbaa !35
  %27 = getelementptr inbounds nuw %struct.phuff_entropy_decoder, ptr %26, i32 0, i32 3
  %28 = load i32, ptr %27, align 4, !tbaa !77
  %29 = icmp eq i32 %28, 0
  br i1 %29, label %30, label %36

30:                                               ; preds = %25
  %31 = load ptr, ptr %4, align 8, !tbaa !3
  %32 = call i32 @process_restart(ptr noundef %31)
  %33 = icmp ne i32 %32, 0
  br i1 %33, label %35, label %34

34:                                               ; preds = %30
  store i32 0, ptr %3, align 4
  store i32 1, ptr %13, align 4
  br label %137

35:                                               ; preds = %30
  br label %36

36:                                               ; preds = %35, %25
  br label %37

37:                                               ; preds = %36, %2
  %38 = load ptr, ptr %4, align 8, !tbaa !3
  %39 = getelementptr inbounds nuw %struct.bitread_working_state, ptr %12, i32 0, i32 4
  store ptr %38, ptr %39, align 8, !tbaa !80
  %40 = load ptr, ptr %4, align 8, !tbaa !3
  %41 = getelementptr inbounds nuw %struct.jpeg_decompress_struct, ptr %40, i32 0, i32 6
  %42 = load ptr, ptr %41, align 8, !tbaa !82
  %43 = getelementptr inbounds nuw %struct.jpeg_source_mgr, ptr %42, i32 0, i32 0
  %44 = load ptr, ptr %43, align 8, !tbaa !83
  %45 = getelementptr inbounds nuw %struct.bitread_working_state, ptr %12, i32 0, i32 0
  store ptr %44, ptr %45, align 8, !tbaa !85
  %46 = load ptr, ptr %4, align 8, !tbaa !3
  %47 = getelementptr inbounds nuw %struct.jpeg_decompress_struct, ptr %46, i32 0, i32 6
  %48 = load ptr, ptr %47, align 8, !tbaa !82
  %49 = getelementptr inbounds nuw %struct.jpeg_source_mgr, ptr %48, i32 0, i32 1
  %50 = load i64, ptr %49, align 8, !tbaa !86
  %51 = getelementptr inbounds nuw %struct.bitread_working_state, ptr %12, i32 0, i32 1
  store i64 %50, ptr %51, align 8, !tbaa !87
  %52 = load ptr, ptr %6, align 8, !tbaa !35
  %53 = getelementptr inbounds nuw %struct.phuff_entropy_decoder, ptr %52, i32 0, i32 1
  %54 = getelementptr inbounds nuw %struct.bitread_perm_state, ptr %53, i32 0, i32 0
  %55 = load i64, ptr %54, align 8, !tbaa !73
  store i64 %55, ptr %10, align 8, !tbaa !88
  %56 = load ptr, ptr %6, align 8, !tbaa !35
  %57 = getelementptr inbounds nuw %struct.phuff_entropy_decoder, ptr %56, i32 0, i32 1
  %58 = getelementptr inbounds nuw %struct.bitread_perm_state, ptr %57, i32 0, i32 1
  %59 = load i32, ptr %58, align 8, !tbaa !72
  store i32 %59, ptr %11, align 4, !tbaa !42
  store i32 0, ptr %8, align 4, !tbaa !42
  br label %60

60:                                               ; preds = %103, %37
  %61 = load i32, ptr %8, align 4, !tbaa !42
  %62 = load ptr, ptr %4, align 8, !tbaa !3
  %63 = getelementptr inbounds nuw %struct.jpeg_decompress_struct, ptr %62, i32 0, i32 70
  %64 = load i32, ptr %63, align 8, !tbaa !90
  %65 = icmp slt i32 %61, %64
  br i1 %65, label %66, label %106

66:                                               ; preds = %60
  %67 = load ptr, ptr %5, align 8, !tbaa !78
  %68 = load i32, ptr %8, align 4, !tbaa !42
  %69 = sext i32 %68 to i64
  %70 = getelementptr inbounds ptr, ptr %67, i64 %69
  %71 = load ptr, ptr %70, align 8, !tbaa !91
  store ptr %71, ptr %9, align 8, !tbaa !91
  %72 = load i32, ptr %11, align 4, !tbaa !42
  %73 = icmp slt i32 %72, 1
  br i1 %73, label %74, label %85

74:                                               ; preds = %66
  %75 = load i64, ptr %10, align 8, !tbaa !88
  %76 = load i32, ptr %11, align 4, !tbaa !42
  %77 = call i32 @jpeg_fill_bit_buffer(ptr noundef %12, i64 noundef %75, i32 noundef %76, i32 noundef 1)
  %78 = icmp ne i32 %77, 0
  br i1 %78, label %80, label %79

79:                                               ; preds = %74
  store i32 0, ptr %3, align 4
  store i32 1, ptr %13, align 4
  br label %137

80:                                               ; preds = %74
  %81 = getelementptr inbounds nuw %struct.bitread_working_state, ptr %12, i32 0, i32 2
  %82 = load i64, ptr %81, align 8, !tbaa !93
  store i64 %82, ptr %10, align 8, !tbaa !88
  %83 = getelementptr inbounds nuw %struct.bitread_working_state, ptr %12, i32 0, i32 3
  %84 = load i32, ptr %83, align 8, !tbaa !94
  store i32 %84, ptr %11, align 4, !tbaa !42
  br label %85

85:                                               ; preds = %80, %66
  %86 = load i64, ptr %10, align 8, !tbaa !88
  %87 = load i32, ptr %11, align 4, !tbaa !42
  %88 = sub nsw i32 %87, 1
  store i32 %88, ptr %11, align 4, !tbaa !42
  %89 = zext i32 %88 to i64
  %90 = lshr i64 %86, %89
  %91 = trunc i64 %90 to i32
  %92 = and i32 %91, 1
  %93 = icmp ne i32 %92, 0
  br i1 %93, label %94, label %102

94:                                               ; preds = %85
  %95 = load i32, ptr %7, align 4, !tbaa !42
  %96 = load ptr, ptr %9, align 8, !tbaa !91
  %97 = getelementptr inbounds [64 x i16], ptr %96, i64 0, i64 0
  %98 = load i16, ptr %97, align 2, !tbaa !95
  %99 = sext i16 %98 to i32
  %100 = or i32 %99, %95
  %101 = trunc i32 %100 to i16
  store i16 %101, ptr %97, align 2, !tbaa !95
  br label %102

102:                                              ; preds = %94, %85
  br label %103

103:                                              ; preds = %102
  %104 = load i32, ptr %8, align 4, !tbaa !42
  %105 = add nsw i32 %104, 1
  store i32 %105, ptr %8, align 4, !tbaa !42
  br label %60, !llvm.loop !98

106:                                              ; preds = %60
  %107 = getelementptr inbounds nuw %struct.bitread_working_state, ptr %12, i32 0, i32 0
  %108 = load ptr, ptr %107, align 8, !tbaa !85
  %109 = load ptr, ptr %4, align 8, !tbaa !3
  %110 = getelementptr inbounds nuw %struct.jpeg_decompress_struct, ptr %109, i32 0, i32 6
  %111 = load ptr, ptr %110, align 8, !tbaa !82
  %112 = getelementptr inbounds nuw %struct.jpeg_source_mgr, ptr %111, i32 0, i32 0
  store ptr %108, ptr %112, align 8, !tbaa !83
  %113 = getelementptr inbounds nuw %struct.bitread_working_state, ptr %12, i32 0, i32 1
  %114 = load i64, ptr %113, align 8, !tbaa !87
  %115 = load ptr, ptr %4, align 8, !tbaa !3
  %116 = getelementptr inbounds nuw %struct.jpeg_decompress_struct, ptr %115, i32 0, i32 6
  %117 = load ptr, ptr %116, align 8, !tbaa !82
  %118 = getelementptr inbounds nuw %struct.jpeg_source_mgr, ptr %117, i32 0, i32 1
  store i64 %114, ptr %118, align 8, !tbaa !86
  %119 = load i64, ptr %10, align 8, !tbaa !88
  %120 = load ptr, ptr %6, align 8, !tbaa !35
  %121 = getelementptr inbounds nuw %struct.phuff_entropy_decoder, ptr %120, i32 0, i32 1
  %122 = getelementptr inbounds nuw %struct.bitread_perm_state, ptr %121, i32 0, i32 0
  store i64 %119, ptr %122, align 8, !tbaa !73
  %123 = load i32, ptr %11, align 4, !tbaa !42
  %124 = load ptr, ptr %6, align 8, !tbaa !35
  %125 = getelementptr inbounds nuw %struct.phuff_entropy_decoder, ptr %124, i32 0, i32 1
  %126 = getelementptr inbounds nuw %struct.bitread_perm_state, ptr %125, i32 0, i32 1
  store i32 %123, ptr %126, align 8, !tbaa !72
  %127 = load ptr, ptr %4, align 8, !tbaa !3
  %128 = getelementptr inbounds nuw %struct.jpeg_decompress_struct, ptr %127, i32 0, i32 50
  %129 = load i32, ptr %128, align 8, !tbaa !76
  %130 = icmp ne i32 %129, 0
  br i1 %130, label %131, label %136

131:                                              ; preds = %106
  %132 = load ptr, ptr %6, align 8, !tbaa !35
  %133 = getelementptr inbounds nuw %struct.phuff_entropy_decoder, ptr %132, i32 0, i32 3
  %134 = load i32, ptr %133, align 4, !tbaa !77
  %135 = add i32 %134, -1
  store i32 %135, ptr %133, align 4, !tbaa !77
  br label %136

136:                                              ; preds = %131, %106
  store i32 1, ptr %3, align 4
  store i32 1, ptr %13, align 4
  br label %137

137:                                              ; preds = %136, %79, %34
  call void @llvm.lifetime.end.p0(i64 40, ptr %12) #4
  call void @llvm.lifetime.end.p0(i64 4, ptr %11) #4
  call void @llvm.lifetime.end.p0(i64 8, ptr %10) #4
  call void @llvm.lifetime.end.p0(i64 8, ptr %9) #4
  call void @llvm.lifetime.end.p0(i64 4, ptr %8) #4
  call void @llvm.lifetime.end.p0(i64 4, ptr %7) #4
  call void @llvm.lifetime.end.p0(i64 8, ptr %6) #4
  %138 = load i32, ptr %3, align 4
  ret i32 %138
}