; Function Attrs: nounwind uwtable
define internal range(i32 0, 2) i32 @decode_mcu_DC_refine(ptr noundef %0, ptr noundef readonly captures(none) %1) #0 {
  %3 = alloca %struct.bitread_working_state, align 8
  %4 = getelementptr inbounds nuw i8, ptr %0, i64 592
  %5 = load ptr, ptr %4, align 8, !tbaa !33
  %6 = getelementptr inbounds nuw i8, ptr %0, i64 536
  %7 = load i32, ptr %6, align 8, !tbaa !49
  %8 = shl nuw i32 1, %7
  call void @llvm.lifetime.start.p0(i64 40, ptr nonnull %3) #6
  %9 = getelementptr inbounds nuw i8, ptr %0, i64 368
  %10 = load i32, ptr %9, align 8, !tbaa !71
  %.not = icmp eq i32 %10, 0
  br i1 %.not, label %process_restart.exit.thread, label %11

11:                                               ; preds = %2
  %12 = getelementptr inbounds nuw i8, ptr %5, i64 76
  %13 = load i32, ptr %12, align 4, !tbaa !72
  %14 = icmp eq i32 %13, 0
  br i1 %14, label %15, label %process_restart.exit.thread

15:                                               ; preds = %11
  %16 = getelementptr inbounds nuw i8, ptr %5, i64 48
  %17 = load i32, ptr %16, align 8, !tbaa !67
  %18 = sdiv i32 %17, 8
  %19 = getelementptr inbounds nuw i8, ptr %0, i64 584
  %20 = load ptr, ptr %19, align 8, !tbaa !73
  %21 = getelementptr inbounds nuw i8, ptr %20, i64 36
  %22 = load i32, ptr %21, align 4, !tbaa !74
  %23 = add i32 %22, %18
  store i32 %23, ptr %21, align 4, !tbaa !74
  store i32 0, ptr %16, align 8, !tbaa !67
  %24 = getelementptr inbounds nuw i8, ptr %20, i64 16
  %25 = load ptr, ptr %24, align 8, !tbaa !76
  %26 = tail call i32 %25(ptr noundef nonnull %0) #6
  %.not.i = icmp eq i32 %26, 0
  br i1 %.not.i, label %process_restart.exit, label %.preheader.i

.preheader.i:                                     ; preds = %15
  %27 = getelementptr inbounds nuw i8, ptr %0, i64 432
  %28 = load i32, ptr %27, align 8, !tbaa !47
  %29 = icmp sgt i32 %28, 0
  br i1 %29, label %.lr.ph.i, label %._crit_edge.i

.lr.ph.i:                                         ; preds = %.preheader.i
  %30 = getelementptr inbounds nuw i8, ptr %5, i64 60
  br label %31

31:                                               ; preds = %31, %.lr.ph.i
  %indvars.iv.i = phi i64 [ 0, %.lr.ph.i ], [ %indvars.iv.next.i, %31 ]
  %32 = getelementptr inbounds nuw [4 x i32], ptr %30, i64 0, i64 %indvars.iv.i
  store i32 0, ptr %32, align 4, !tbaa !42
  %indvars.iv.next.i = add nuw nsw i64 %indvars.iv.i, 1
  %33 = load i32, ptr %27, align 8, !tbaa !47
  %34 = sext i32 %33 to i64
  %35 = icmp slt i64 %indvars.iv.next.i, %34
  br i1 %35, label %31, label %._crit_edge.i, !llvm.loop !77

._crit_edge.i:                                    ; preds = %31, %.preheader.i
  %36 = getelementptr inbounds nuw i8, ptr %5, i64 56
  store i32 0, ptr %36, align 8, !tbaa !70
  %37 = load i32, ptr %9, align 8, !tbaa !71
  store i32 %37, ptr %12, align 4, !tbaa !72
  %38 = getelementptr inbounds nuw i8, ptr %0, i64 540
  %39 = load i32, ptr %38, align 4, !tbaa !78
  %40 = icmp eq i32 %39, 0
  br i1 %40, label %41, label %process_restart.exit.thread

41:                                               ; preds = %._crit_edge.i
  %42 = getelementptr inbounds nuw i8, ptr %5, i64 32
  store i32 0, ptr %42, align 8, !tbaa !69
  br label %process_restart.exit.thread

process_restart.exit.thread:                      ; preds = %._crit_edge.i, %41, %11, %2
  %43 = phi i32 [ %37, %._crit_edge.i ], [ %37, %41 ], [ %10, %11 ], [ 0, %2 ]
  %44 = getelementptr inbounds nuw i8, ptr %3, i64 32
  store ptr %0, ptr %44, align 8, !tbaa !79
  %45 = getelementptr inbounds nuw i8, ptr %0, i64 40
  %46 = load ptr, ptr %45, align 8, !tbaa !82
  %47 = load ptr, ptr %46, align 8, !tbaa !83
  store ptr %47, ptr %3, align 8, !tbaa !85
  %48 = getelementptr inbounds nuw i8, ptr %46, i64 8
  %49 = load i64, ptr %48, align 8, !tbaa !86
  %50 = getelementptr inbounds nuw i8, ptr %3, i64 8
  store i64 %49, ptr %50, align 8, !tbaa !87
  %51 = getelementptr inbounds nuw i8, ptr %5, i64 40
  %52 = load i64, ptr %51, align 8, !tbaa !68
  %53 = getelementptr inbounds nuw i8, ptr %5, i64 48
  %54 = load i32, ptr %53, align 8, !tbaa !67
  %55 = getelementptr inbounds nuw i8, ptr %0, i64 480
  %56 = load i32, ptr %55, align 8, !tbaa !89
  %57 = icmp sgt i32 %56, 0
  br i1 %57, label %.lr.ph, label %._crit_edge

.lr.ph:                                           ; preds = %process_restart.exit.thread
  %58 = getelementptr inbounds nuw i8, ptr %3, i64 16
  %59 = getelementptr inbounds nuw i8, ptr %3, i64 24
  %60 = trunc i32 %8 to i16
  br label %61

61:                                               ; preds = %.lr.ph, %78
  %indvars.iv = phi i64 [ 0, %.lr.ph ], [ %indvars.iv.next, %78 ]
  %.044 = phi i32 [ %54, %.lr.ph ], [ %71, %78 ]
  %.03043 = phi i64 [ %52, %.lr.ph ], [ %.131, %78 ]
  %62 = getelementptr inbounds nuw ptr, ptr %1, i64 %indvars.iv
  %63 = load ptr, ptr %62, align 8, !tbaa !90
  %64 = icmp slt i32 %.044, 1
  br i1 %64, label %65, label %70

65:                                               ; preds = %61
  %66 = call i32 @jpeg_fill_bit_buffer(ptr noundef nonnull %3, i64 noundef %.03043, i32 noundef %.044, i32 noundef 1) #6
  %.not36 = icmp eq i32 %66, 0
  br i1 %.not36, label %process_restart.exit, label %67

67:                                               ; preds = %65
  %68 = load i64, ptr %58, align 8, !tbaa !92
  %69 = load i32, ptr %59, align 8, !tbaa !93
  br label %70

70:                                               ; preds = %67, %61
  %.131 = phi i64 [ %68, %67 ], [ %.03043, %61 ]
  %.1 = phi i32 [ %69, %67 ], [ %.044, %61 ]
  %71 = add nsw i32 %.1, -1
  %72 = zext nneg i32 %71 to i64
  %73 = shl nuw i64 1, %72
  %74 = and i64 %73, %.131
  %.not37 = icmp eq i64 %74, 0
  br i1 %.not37, label %78, label %75

75:                                               ; preds = %70
  %76 = load i16, ptr %63, align 2, !tbaa !94
  %77 = or i16 %76, %60
  store i16 %77, ptr %63, align 2, !tbaa !94
  br label %78

78:                                               ; preds = %70, %75
  %indvars.iv.next = add nuw nsw i64 %indvars.iv, 1
  %79 = load i32, ptr %55, align 8, !tbaa !89
  %80 = sext i32 %79 to i64
  %81 = icmp slt i64 %indvars.iv.next, %80
  br i1 %81, label %61, label %._crit_edge.loopexit, !llvm.loop !97

._crit_edge.loopexit:                             ; preds = %78
  %.pre = load ptr, ptr %3, align 8, !tbaa !85
  %.pre47 = load ptr, ptr %45, align 8, !tbaa !82
  %.pre48 = load i64, ptr %50, align 8, !tbaa !87
  %.pre49 = load i32, ptr %9, align 8, !tbaa !71
  br label %._crit_edge

._crit_edge:                                      ; preds = %._crit_edge.loopexit, %process_restart.exit.thread
  %82 = phi i32 [ %43, %process_restart.exit.thread ], [ %.pre49, %._crit_edge.loopexit ]
  %83 = phi i64 [ %49, %process_restart.exit.thread ], [ %.pre48, %._crit_edge.loopexit ]
  %84 = phi ptr [ %46, %process_restart.exit.thread ], [ %.pre47, %._crit_edge.loopexit ]
  %85 = phi ptr [ %47, %process_restart.exit.thread ], [ %.pre, %._crit_edge.loopexit ]
  %.030.lcssa = phi i64 [ %52, %process_restart.exit.thread ], [ %.131, %._crit_edge.loopexit ]
  %.0.lcssa = phi i32 [ %54, %process_restart.exit.thread ], [ %71, %._crit_edge.loopexit ]
  store ptr %85, ptr %84, align 8, !tbaa !83
  %86 = getelementptr inbounds nuw i8, ptr %84, i64 8
  store i64 %83, ptr %86, align 8, !tbaa !86
  store i64 %.030.lcssa, ptr %51, align 8, !tbaa !68
  store i32 %.0.lcssa, ptr %53, align 8, !tbaa !67
  %.not35 = icmp eq i32 %82, 0
  br i1 %.not35, label %process_restart.exit, label %87

87:                                               ; preds = %._crit_edge
  %88 = getelementptr inbounds nuw i8, ptr %5, i64 76
  %89 = load i32, ptr %88, align 4, !tbaa !72
  %90 = add i32 %89, -1
  store i32 %90, ptr %88, align 4, !tbaa !72
  br label %process_restart.exit

process_restart.exit:                             ; preds = %65, %15, %._crit_edge, %87
  %.032 = phi i32 [ 1, %87 ], [ 1, %._crit_edge ], [ 0, %15 ], [ 0, %65 ]
  call void @llvm.lifetime.end.p0(i64 40, ptr nonnull %3) #6
  ret i32 %.032
}